target datalayout = "e-m:e-p270:32:32-p271:32:32-p272:64:64-i64:64-i128:128-f80:128-n8:16:32:64-S128"
target triple = "x86_64-pc-linux-gnu"

%struct.numeric = type { i32, i32, i32, i32, i32, ptr, ptr }

; Function Attrs: nounwind uwtable
define i32 @PGTYPESnumeric_mul(ptr noundef %0, ptr noundef %1, ptr noundef %2) #0 {
  %4 = alloca i32, align 4
  %5 = alloca ptr, align 8
  %6 = alloca ptr, align 8
  %7 = alloca ptr, align 8
  %8 = alloca ptr, align 8
  %9 = alloca ptr, align 8
  %10 = alloca i32, align 4
  %11 = alloca i32, align 4
  %12 = alloca i32, align 4
  %13 = alloca i32, align 4
  %14 = alloca i32, align 4
  %15 = alloca i32, align 4
  %16 = alloca i32, align 4
  %17 = alloca i64, align 8
  %18 = alloca i32, align 4
  %19 = alloca i32, align 4
  store ptr %0, ptr %5, align 8
  store ptr %1, ptr %6, align 8
  store ptr %2, ptr %7, align 8
  call void @llvm.lifetime.start.p0(i64 8, ptr %8) #8
  call void @llvm.lifetime.start.p0(i64 8, ptr %9) #8
  call void @llvm.lifetime.start.p0(i64 4, ptr %10) #8
  call void @llvm.lifetime.start.p0(i64 4, ptr %11) #8
  call void @llvm.lifetime.start.p0(i64 4, ptr %12) #8
  call void @llvm.lifetime.start.p0(i64 4, ptr %13) #8
  call void @llvm.lifetime.start.p0(i64 4, ptr %14) #8
  call void @llvm.lifetime.start.p0(i64 4, ptr %15) #8
  call void @llvm.lifetime.start.p0(i64 4, ptr %16) #8
  call void @llvm.lifetime.start.p0(i64 8, ptr %17) #8
  store i64 0, ptr %17, align 8
  call void @llvm.lifetime.start.p0(i64 4, ptr %18) #8
  %20 = load ptr, ptr %5, align 8
  %21 = getelementptr inbounds nuw %struct.numeric, ptr %20, i32 0, i32 2
  %22 = load i32, ptr %21, align 8
  %23 = load ptr, ptr %6, align 8
  %24 = getelementptr inbounds nuw %struct.numeric, ptr %23, i32 0, i32 2
  %25 = load i32, ptr %24, align 8
  %26 = add i32 %22, %25
  store i32 %26, ptr %18, align 4
  %27 = load ptr, ptr %5, align 8
  %28 = getelementptr inbounds nuw %struct.numeric, ptr %27, i32 0, i32 1
  %29 = load i32, ptr %28, align 4
  %30 = load ptr, ptr %6, align 8
  %31 = getelementptr inbounds nuw %struct.numeric, ptr %30, i32 0, i32 1
  %32 = load i32, ptr %31, align 4
  %33 = add i32 %29, %32
  %34 = add i32 %33, 2
  store i32 %34, ptr %11, align 4
  %35 = load ptr, ptr %5, align 8
  %36 = getelementptr inbounds nuw %struct.numeric, ptr %35, i32 0, i32 0
  %37 = load i32, ptr %36, align 8
  %38 = load ptr, ptr %6, align 8
  %39 = getelementptr inbounds nuw %struct.numeric, ptr %38, i32 0, i32 0
  %40 = load i32, ptr %39, align 8
  %41 = add i32 %37, %40
  %42 = add i32 %41, 1
  store i32 %42, ptr %10, align 4
  %43 = load ptr, ptr %5, align 8
  %44 = getelementptr inbounds nuw %struct.numeric, ptr %43, i32 0, i32 4
  %45 = load i32, ptr %44, align 8
  %46 = load ptr, ptr %6, align 8
  %47 = getelementptr inbounds nuw %struct.numeric, ptr %46, i32 0, i32 4
  %48 = load i32, ptr %47, align 8
  %49 = icmp eq i32 %45, %48
  br i1 %49, label %50, label %51

50:                                               ; preds = %3
  store i32 0, ptr %12, align 4
  br label %52

51:                                               ; preds = %3
  store i32 16384, ptr %12, align 4
  br label %52

52:                                               ; preds = %51, %50
  %53 = load i32, ptr %10, align 4
  %54 = sext i32 %53 to i64
  %55 = call ptr @pgtypes_alloc(i64 noundef %54)
  store ptr %55, ptr %8, align 8
  %56 = icmp eq ptr %55, null
  br i1 %56, label %57, label %58

57:                                               ; preds = %52
  store i32 -1, ptr %4, align 4
  store i32 1, ptr %19, align 4
  br label %250

58:                                               ; preds = %52
  %59 = load ptr, ptr %8, align 8
  store ptr %59, ptr %9, align 8
  %60 = load ptr, ptr %9, align 8
  %61 = load i32, ptr %10, align 4
  %62 = sext i32 %61 to i64
  call void @llvm.memset.p0.i64(ptr align 1 %60, i8 0, i64 %62, i1 false)
  %63 = load i32, ptr %10, align 4
  store i32 %63, ptr %14, align 4
  %64 = load ptr, ptr %5, align 8
  %65 = getelementptr inbounds nuw %struct.numeric, ptr %64, i32 0, i32 0
  %66 = load i32, ptr %65, align 8
  %67 = sub i32 %66, 1
  store i32 %67, ptr %15, align 4
  br label %68

68:                                               ; preds = %129, %58
  %69 = load i32, ptr %15, align 4
  %70 = icmp sge i32 %69, 0
  br i1 %70, label %71, label %132

71:                                               ; preds = %68
  store i64 0, ptr %17, align 8
  %72 = load i32, ptr %14, align 4
  %73 = add i32 %72, -1
  store i32 %73, ptr %14, align 4
  store i32 %73, ptr %13, align 4
  %74 = load ptr, ptr %6, align 8
  %75 = getelementptr inbounds nuw %struct.numeric, ptr %74, i32 0, i32 0
  %76 = load i32, ptr %75, align 8
  %77 = sub i32 %76, 1
  store i32 %77, ptr %16, align 4
  br label %78

78:                                               ; preds = %119, %71
  %79 = load i32, ptr %16, align 4
  %80 = icmp sge i32 %79, 0
  br i1 %80, label %81, label %122

81:                                               ; preds = %78
  %82 = load ptr, ptr %9, align 8
  %83 = load i32, ptr %13, align 4
  %84 = sext i32 %83 to i64
  %85 = getelementptr inbounds i8, ptr %82, i64 %84
  %86 = load i8, ptr %85, align 1
  %87 = zext i8 %86 to i32
  %88 = load ptr, ptr %5, align 8
  %89 = getelementptr inbounds nuw %struct.numeric, ptr %88, i32 0, i32 6
  %90 = load ptr, ptr %89, align 8
  %91 = load i32, ptr %15, align 4
  %92 = sext i32 %91 to i64
  %93 = getelementptr inbounds i8, ptr %90, i64 %92
  %94 = load i8, ptr %93, align 1
  %95 = zext i8 %94 to i32
  %96 = load ptr, ptr %6, align 8
  %97 = getelementptr inbounds nuw %struct.numeric, ptr %96, i32 0, i32 6
  %98 = load ptr, ptr %97, align 8
  %99 = load i32, ptr %16, align 4
  %100 = sext i32 %99 to i64
  %101 = getelementptr inbounds i8, ptr %98, i64 %100
  %102 = load i8, ptr %101, align 1
  %103 = zext i8 %102 to i32
  %104 = mul i32 %95, %103
  %105 = add i32 %87, %104
  %106 = sext i32 %105 to i64
  %107 = load i64, ptr %17, align 8
  %108 = add i64 %107, %106
  store i64 %108, ptr %17, align 8
  %109 = load i64, ptr %17, align 8
  %110 = srem i64 %109, 10
  %111 = trunc i64 %110 to i8
  %112 = load ptr, ptr %9, align 8
  %113 = load i32, ptr %13, align 4
  %114 = add i32 %113, -1
  store i32 %114, ptr %13, align 4
  %115 = sext i32 %113 to i64
  %116 = getelementptr inbounds i8, ptr %112, i64 %115
  store i8 %111, ptr %116, align 1
  %117 = load i64, ptr %17, align 8
  %118 = sdiv i64 %117, 10
  store i64 %118, ptr %17, align 8
  br label %119

119:                                              ; preds = %81
  %120 = load i32, ptr %16, align 4
  %121 = add i32 %120, -1
  store i32 %121, ptr %16, align 4
  br label %78, !llvm.loop !26

122:                                              ; preds = %78
  %123 = load i64, ptr %17, align 8
  %124 = trunc i64 %123 to i8
  %125 = load ptr, ptr %9, align 8
  %126 = load i32, ptr %13, align 4
  %127 = sext i32 %126 to i64
  %128 = getelementptr inbounds i8, ptr %125, i64 %127
  store i8 %124, ptr %128, align 1
  br label %129

129:                                              ; preds = %122
  %130 = load i32, ptr %15, align 4
  %131 = add i32 %130, -1
  store i32 %131, ptr %15, align 4
  br label %68, !llvm.loop !27

132:                                              ; preds = %68
  %133 = load i32, ptr %11, align 4
  %134 = load i32, ptr %18, align 4
  %135 = add i32 %133, %134
  %136 = add i32 %135, 2
  store i32 %136, ptr %13, align 4
  %137 = load i32, ptr %13, align 4
  %138 = icmp sge i32 %137, 0
  br i1 %138, label %139, label %179

139:                                              ; preds = %132
  %140 = load i32, ptr %13, align 4
  %141 = load i32, ptr %10, align 4
  %142 = icmp slt i32 %140, %141
  br i1 %142, label %143, label %179

143:                                              ; preds = %139
  %144 = load ptr, ptr %9, align 8
  %145 = load i32, ptr %13, align 4
  %146 = sext i32 %145 to i64
  %147 = getelementptr inbounds i8, ptr %144, i64 %146
  %148 = load i8, ptr %147, align 1
  %149 = zext i8 %148 to i32
  %150 = icmp sgt i32 %149, 4
  %151 = select i1 %150, i32 1, i32 0
  %152 = sext i32 %151 to i64
  store i64 %152, ptr %17, align 8
  %153 = load i32, ptr %13, align 4
  store i32 %153, ptr %10, align 4
  %154 = load i32, ptr %13, align 4
  %155 = add i32 %154, -1
  store i32 %155, ptr %13, align 4
  br label %156

156:                                              ; preds = %159, %143
  %157 = load i64, ptr %17, align 8
  %158 = icmp ne i64 %157, 0
  br i1 %158, label %159, label %178

159:                                              ; preds = %156
  %160 = load ptr, ptr %9, align 8
  %161 = load i32, ptr %13, align 4
  %162 = sext i32 %161 to i64
  %163 = getelementptr inbounds i8, ptr %160, i64 %162
  %164 = load i8, ptr %163, align 1
  %165 = zext i8 %164 to i64
  %166 = load i64, ptr %17, align 8
  %167 = add i64 %166, %165
  store i64 %167, ptr %17, align 8
  %168 = load i64, ptr %17, align 8
  %169 = srem i64 %168, 10
  %170 = trunc i64 %169 to i8
  %171 = load ptr, ptr %9, align 8
  %172 = load i32, ptr %13, align 4
  %173 = add i32 %172, -1
  store i32 %173, ptr %13, align 4
  %174 = sext i32 %172 to i64
  %175 = getelementptr inbounds i8, ptr %171, i64 %174
  store i8 %170, ptr %175, align 1
  %176 = load i64, ptr %17, align 8
  %177 = sdiv i64 %176, 10
  store i64 %177, ptr %17, align 8
  br label %156, !llvm.loop !28

178:                                              ; preds = %156
  br label %179

179:                                              ; preds = %178, %139, %132
  br label %180

180:                                              ; preds = %190, %179
  %181 = load i32, ptr %10, align 4
  %182 = icmp sgt i32 %181, 0
  br i1 %182, label %183, label %188

183:                                              ; preds = %180
  %184 = load ptr, ptr %9, align 8
  %185 = load i8, ptr %184, align 1
  %186 = zext i8 %185 to i32
  %187 = icmp eq i32 %186, 0
  br label %188

188:                                              ; preds = %183, %180
  %189 = phi i1 [ false, %180 ], [ %187, %183 ]
  br i1 %189, label %190, label %197

190:                                              ; preds = %188
  %191 = load ptr, ptr %9, align 8
  %192 = getelementptr inbounds nuw i8, ptr %191, i32 1
  store ptr %192, ptr %9, align 8
  %193 = load i32, ptr %11, align 4
  %194 = add i32 %193, -1
  store i32 %194, ptr %11, align 4
  %195 = load i32, ptr %10, align 4
  %196 = add i32 %195, -1
  store i32 %196, ptr %10, align 4
  br label %180, !llvm.loop !29

197:                                              ; preds = %188
  br label %198

198:                                              ; preds = %212, %197
  %199 = load i32, ptr %10, align 4
  %200 = icmp sgt i32 %199, 0
  br i1 %200, label %201, label %210

201:                                              ; preds = %198
  %202 = load ptr, ptr %9, align 8
  %203 = load i32, ptr %10, align 4
  %204 = sub i32 %203, 1
  %205 = sext i32 %204 to i64
  %206 = getelementptr inbounds i8, ptr %202, i64 %205
  %207 = load i8, ptr %206, align 1
  %208 = zext i8 %207 to i32
  %209 = icmp eq i32 %208, 0
  br label %210

210:                                              ; preds = %201, %198
  %211 = phi i1 [ false, %198 ], [ %209, %201 ]
  br i1 %211, label %212, label %215

212:                                              ; preds = %210
  %213 = load i32, ptr %10, align 4
  %214 = add i32 %213, -1
  store i32 %214, ptr %10, align 4
  br label %198, !llvm.loop !30

215:                                              ; preds = %210
  %216 = load i32, ptr %10, align 4
  %217 = icmp eq i32 %216, 0
  br i1 %217, label %218, label %219

218:                                              ; preds = %215
  store i32 0, ptr %12, align 4
  store i32 0, ptr %11, align 4
  br label %219

219:                                              ; preds = %218, %215
  %220 = load ptr, ptr %7, align 8
  %221 = getelementptr inbounds nuw %struct.numeric, ptr %220, i32 0, i32 5
  %222 = load ptr, ptr %221, align 8
  call void @free(ptr noundef %222) #8
  %223 = load ptr, ptr %8, align 8
  %224 = load ptr, ptr %7, align 8
  %225 = getelementptr inbounds nuw %struct.numeric, ptr %224, i32 0, i32 5
  store ptr %223, ptr %225, align 8
  %226 = load ptr, ptr %9, align 8
  %227 = load ptr, ptr %7, align 8
  %228 = getelementptr inbounds nuw %struct.numeric, ptr %227, i32 0, i32 6
  store ptr %226, ptr %228, align 8
  %229 = load i32, ptr %10, align 4
  %230 = load ptr, ptr %7, align 8
  %231 = getelementptr inbounds nuw %struct.numeric, ptr %230, i32 0, i32 0
  store i32 %229, ptr %231, align 8
  %232 = load i32, ptr %11, align 4
  %233 = load ptr, ptr %7, align 8
  %234 = getelementptr inbounds nuw %struct.numeric, ptr %233, i32 0, i32 1
  store i32 %232, ptr %234, align 4
  %235 = load i32, ptr %18, align 4
  %236 = load ptr, ptr %7, align 8
  %237 = getelementptr inbounds nuw %struct.numeric, ptr %236, i32 0, i32 2
  store i32 %235, ptr %237, align 8
  %238 = load i32, ptr %12, align 4
  %239 = load ptr, ptr %7, align 8
  %240 = getelementptr inbounds nuw %struct.numeric, ptr %239, i32 0, i32 4
  store i32 %238, ptr %240, align 8
  %241 = load ptr, ptr %5, align 8
  %242 = getelementptr inbounds nuw %struct.numeric, ptr %241, i32 0, i32 3
  %243 = load i32, ptr %242, align 4
  %244 = load ptr, ptr %6, align 8
  %245 = getelementptr inbounds nuw %struct.numeric, ptr %244, i32 0, i32 3
  %246 = load i32, ptr %245, align 4
  %247 = add i32 %243, %246
  %248 = load ptr, ptr %7, align 8
  %249 = getelementptr inbounds nuw %struct.numeric, ptr %248, i32 0, i32 3
  store i32 %247, ptr %249, align 4
  store i32 0, ptr %4, align 4
  store i32 1, ptr %19, align 4
  br label %250

250:                                              ; preds = %219, %57
  call void @llvm.lifetime.end.p0(i64 4, ptr %18) #8
  call void @llvm.lifetime.end.p0(i64 8, ptr %17) #8
  call void @llvm.lifetime.end.p0(i64 4, ptr %16) #8
  call void @llvm.lifetime.end.p0(i64 4, ptr %15) #8
  call void @llvm.lifetime.end.p0(i64 4, ptr %14) #8
  call void @llvm.lifetime.end.p0(i64 4, ptr %13) #8
  call void @llvm.lifetime.end.p0(i64 4, ptr %12) #8
  call void @llvm.lifetime.end.p0(i64 4, ptr %11) #8
  call void @llvm.lifetime.end.p0(i64 4, ptr %10) #8
  call void @llvm.lifetime.end.p0(i64 8, ptr %9) #8
  call void @llvm.lifetime.end.p0(i64 8, ptr %8) #8
  %251 = load i32, ptr %4, align 4
  ret i32 %251
}