; Function Attrs: nounwind uwtable
define range(i32 -1, 1) i32 @PGTYPESnumeric_mul(ptr noundef readonly captures(none) %0, ptr noundef readonly captures(none) %1, ptr noundef captures(none) %2) local_unnamed_addr #0 {
  %4 = getelementptr inbounds nuw i8, ptr %0, i64 8
  %5 = load i32, ptr %4, align 8
  %6 = getelementptr inbounds nuw i8, ptr %1, i64 8
  %7 = load i32, ptr %6, align 8
  %8 = add i32 %7, %5
  %9 = getelementptr inbounds nuw i8, ptr %0, i64 4
  %10 = load i32, ptr %9, align 4
  %11 = getelementptr inbounds nuw i8, ptr %1, i64 4
  %12 = load i32, ptr %11, align 4
  %13 = add i32 %10, 2
  %14 = add i32 %13, %12
  %15 = load i32, ptr %0, align 8
  %16 = load i32, ptr %1, align 8
  %17 = add i32 %15, 1
  %18 = add i32 %17, %16
  %19 = getelementptr inbounds nuw i8, ptr %0, i64 16
  %20 = load i32, ptr %19, align 8
  %21 = getelementptr inbounds nuw i8, ptr %1, i64 16
  %22 = load i32, ptr %21, align 8
  %23 = icmp eq i32 %20, %22
  %24 = sext i32 %18 to i64
  %25 = tail call ptr @pgtypes_alloc(i64 noundef %24) #14
  %26 = icmp eq ptr %25, null
  br i1 %26, label %113, label %27

27:                                               ; preds = %3
  tail call void @llvm.memset.p0.i64(ptr nonnull align 1 %25, i8 0, i64 %24, i1 false)
  %28 = load i32, ptr %0, align 8
  %.081101 = add i32 %28, -1
  %29 = icmp sgt i32 %.081101, -1
  br i1 %29, label %.lr.ph105, label %._crit_edge106

.lr.ph105:                                        ; preds = %27
  %30 = getelementptr inbounds nuw i8, ptr %0, i64 32
  %31 = getelementptr inbounds nuw i8, ptr %1, i64 32
  %32 = zext nneg i32 %.081101 to i64
  br label %33

33:                                               ; preds = %.lr.ph105, %._crit_edge
  %indvars.iv131 = phi i64 [ %32, %.lr.ph105 ], [ %indvars.iv.next132, %._crit_edge ]
  %.082102 = phi i32 [ %18, %.lr.ph105 ], [ %34, %._crit_edge ]
  %34 = add i32 %.082102, -1
  %35 = load i32, ptr %1, align 8
  %.08096 = add i32 %35, -1
  %36 = icmp sgt i32 %.08096, -1
  br i1 %36, label %.lr.ph, label %._crit_edge

.lr.ph:                                           ; preds = %33
  %37 = zext nneg i32 %.08096 to i64
  br label %38

38:                                               ; preds = %.lr.ph, %38
  %indvars.iv = phi i64 [ %37, %.lr.ph ], [ %indvars.iv.next, %38 ]
  %.07998 = phi i64 [ 0, %.lr.ph ], [ %57, %38 ]
  %.08397 = phi i32 [ %34, %.lr.ph ], [ %56, %38 ]
  %39 = sext i32 %.08397 to i64
  %40 = getelementptr inbounds i8, ptr %25, i64 %39
  %41 = load i8, ptr %40, align 1
  %42 = zext i8 %41 to i64
  %43 = load ptr, ptr %30, align 8
  %44 = getelementptr inbounds nuw i8, ptr %43, i64 %indvars.iv131
  %45 = load i8, ptr %44, align 1
  %46 = zext i8 %45 to i64
  %47 = load ptr, ptr %31, align 8
  %48 = getelementptr inbounds nuw i8, ptr %47, i64 %indvars.iv
  %49 = load i8, ptr %48, align 1
  %50 = zext i8 %49 to i64
  %51 = mul nuw nsw i64 %50, %46
  %52 = add nsw i64 %.07998, %42
  %53 = add nsw i64 %52, %51
  %54 = srem i64 %53, 10
  %55 = trunc nsw i64 %54 to i8
  %56 = add i32 %.08397, -1
  store i8 %55, ptr %40, align 1
  %57 = sdiv i64 %53, 10
  %indvars.iv.next = add nsw i64 %indvars.iv, -1
  %.not145 = icmp eq i64 %indvars.iv, 0
  br i1 %.not145, label %._crit_edge.loopexit, label %38, !llvm.loop !24

._crit_edge.loopexit:                             ; preds = %38
  %58 = trunc i64 %57 to i8
  br label %._crit_edge

._crit_edge:                                      ; preds = %._crit_edge.loopexit, %33
  %.083.lcssa = phi i32 [ %34, %33 ], [ %56, %._crit_edge.loopexit ]
  %.079.lcssa = phi i8 [ 0, %33 ], [ %58, %._crit_edge.loopexit ]
  %59 = sext i32 %.083.lcssa to i64
  %60 = getelementptr inbounds i8, ptr %25, i64 %59
  store i8 %.079.lcssa, ptr %60, align 1
  %indvars.iv.next132 = add nsw i64 %indvars.iv131, -1
  %61 = icmp sgt i64 %indvars.iv131, 0
  br i1 %61, label %33, label %._crit_edge106, !llvm.loop !25

._crit_edge106:                                   ; preds = %._crit_edge, %27
  %62 = add i32 %14, %8
  %63 = add i32 %62, 2
  %64 = icmp sgt i32 %63, -1
  %65 = icmp slt i32 %63, %18
  %or.cond = and i1 %64, %65
  br i1 %or.cond, label %66, label %.loopexit

66:                                               ; preds = %._crit_edge106
  %67 = zext nneg i32 %63 to i64
  %68 = getelementptr inbounds nuw i8, ptr %25, i64 %67
  %69 = load i8, ptr %68, align 1
  %70 = icmp ugt i8 %69, 4
  br i1 %70, label %.lr.ph111.preheader, label %.loopexit

.lr.ph111.preheader:                              ; preds = %66
  %71 = add nsw i32 %62, 1
  br label %.lr.ph111

.lr.ph111:                                        ; preds = %.lr.ph111.preheader, %.lr.ph111
  %.1109 = phi i64 [ %80, %.lr.ph111 ], [ 1, %.lr.ph111.preheader ]
  %.184108 = phi i32 [ %79, %.lr.ph111 ], [ %71, %.lr.ph111.preheader ]
  %72 = sext i32 %.184108 to i64
  %73 = getelementptr inbounds i8, ptr %25, i64 %72
  %74 = load i8, ptr %73, align 1
  %75 = zext i8 %74 to i64
  %76 = add nuw nsw i64 %.1109, %75
  %77 = urem i64 %76, 10
  %78 = trunc nuw nsw i64 %77 to i8
  %79 = add i32 %.184108, -1
  store i8 %78, ptr %73, align 1
  %80 = udiv i64 %76, 10
  %.not = icmp samesign ult i64 %76, 10
  br i1 %.not, label %.loopexit, label %.lr.ph111, !llvm.loop !26

.loopexit:                                        ; preds = %.lr.ph111, %66, %._crit_edge106
  %.089 = phi i32 [ %18, %._crit_edge106 ], [ %63, %66 ], [ %63, %.lr.ph111 ]
  %81 = icmp sgt i32 %.089, 0
  br i1 %81, label %.lr.ph116.preheader, label %.critedge2

.lr.ph116.preheader:                              ; preds = %.loopexit
  %82 = zext nneg i32 %.089 to i64
  %scevgep = getelementptr i8, ptr %25, i64 %82
  %83 = add i32 %10, %12
  %84 = add i32 %83, 2
  %85 = sub i32 %84, %.089
  br label %.lr.ph116

.lr.ph116:                                        ; preds = %.lr.ph116.preheader, %88
  %.087114 = phi i32 [ %90, %88 ], [ %14, %.lr.ph116.preheader ]
  %.190113 = phi i32 [ %91, %88 ], [ %.089, %.lr.ph116.preheader ]
  %.091112 = phi ptr [ %89, %88 ], [ %25, %.lr.ph116.preheader ]
  %86 = load i8, ptr %.091112, align 1
  %87 = icmp eq i8 %86, 0
  br i1 %87, label %88, label %.lr.ph125.preheader

88:                                               ; preds = %.lr.ph116
  %89 = getelementptr inbounds nuw i8, ptr %.091112, i64 1
  %90 = add i32 %.087114, -1
  %91 = add nsw i32 %.190113, -1
  %92 = icmp sgt i32 %.190113, 1
  br i1 %92, label %.lr.ph116, label %.critedge2, !llvm.loop !27

.lr.ph125.preheader:                              ; preds = %.lr.ph116
  %invariant.gep = getelementptr i8, ptr %.091112, i64 -1
  br label %.lr.ph125

.lr.ph125:                                        ; preds = %.lr.ph125.preheader, %96
  %.2124 = phi i32 [ %97, %96 ], [ %.190113, %.lr.ph125.preheader ]
  %93 = zext nneg i32 %.2124 to i64
  %gep = getelementptr i8, ptr %invariant.gep, i64 %93
  %94 = load i8, ptr %gep, align 1
  %95 = icmp eq i8 %94, 0
  br i1 %95, label %96, label %.critedge2

96:                                               ; preds = %.lr.ph125
  %97 = add nsw i32 %.2124, -1
  %98 = icmp sgt i32 %.2124, 1
  br i1 %98, label %.lr.ph125, label %.critedge2, !llvm.loop !28

.critedge2:                                       ; preds = %88, %.lr.ph125, %96, %.loopexit
  %.087.lcssa139 = phi i32 [ %14, %.loopexit ], [ %.087114, %96 ], [ %.087114, %.lr.ph125 ], [ %85, %88 ]
  %.091.lcssa138 = phi ptr [ %25, %.loopexit ], [ %.091112, %96 ], [ %.091112, %.lr.ph125 ], [ %scevgep, %88 ]
  %.2.lcssa = phi i32 [ %.089, %.loopexit ], [ %.2124, %.lr.ph125 ], [ 0, %96 ], [ 0, %88 ]
  %99 = icmp eq i32 %.2.lcssa, 0
  %spec.select = select i1 %99, i32 0, i32 %.087.lcssa139
  %100 = select i1 %99, i1 true, i1 %23
  %spec.select95 = select i1 %100, i32 0, i32 16384
  %101 = getelementptr inbounds nuw i8, ptr %2, i64 24
  %102 = load ptr, ptr %101, align 8
  tail call void @free(ptr noundef %102) #14
  store ptr %25, ptr %101, align 8
  %103 = getelementptr inbounds nuw i8, ptr %2, i64 32
  store ptr %.091.lcssa138, ptr %103, align 8
  store i32 %.2.lcssa, ptr %2, align 8
  %104 = getelementptr inbounds nuw i8, ptr %2, i64 4
  store i32 %spec.select, ptr %104, align 4
  %105 = getelementptr inbounds nuw i8, ptr %2, i64 8
  store i32 %8, ptr %105, align 8
  %106 = getelementptr inbounds nuw i8, ptr %2, i64 16
  store i32 %spec.select95, ptr %106, align 8
  %107 = getelementptr inbounds nuw i8, ptr %0, i64 12
  %108 = load i32, ptr %107, align 4
  %109 = getelementptr inbounds nuw i8, ptr %1, i64 12
  %110 = load i32, ptr %109, align 4
  %111 = add i32 %110, %108
  %112 = getelementptr inbounds nuw i8, ptr %2, i64 12
  store i32 %111, ptr %112, align 4
  br label %113

113:                                              ; preds = %3, %.critedge2
  %.0 = phi i32 [ 0, %.critedge2 ], [ -1, %3 ]
  ret i32 %.0
}